; Function Attrs: nounwind uwtable
define internal noundef nonnull ptr @test_atomic_add_int(ptr readnone captures(none) %0, ptr readnone captures(none) %1) #0 {
  %3 = alloca i32, align 4
  call void @llvm.lifetime.start.p0(i64 4, ptr nonnull %3) #6
  store i32 0, ptr %3, align 4, !tbaa !8
  %4 = atomicrmw add ptr %3, i32 1 seq_cst, align 4
  %5 = icmp eq i32 %4, 0
  br i1 %5, label %7, label %6

6:                                                ; preds = %2
  call void @__assert_fail(ptr noundef nonnull @.str.113, ptr noundef nonnull @.str.65, i32 noundef 54, ptr noundef nonnull @__PRETTY_FUNCTION__.test_atomic_add_int) #7
  unreachable

7:                                                ; preds = %2
  %8 = load i32, ptr %3, align 4, !tbaa !8
  %9 = icmp eq i32 %8, 1
  br i1 %9, label %11, label %10

10:                                               ; preds = %7
  call void @__assert_fail(ptr noundef nonnull @.str.66, ptr noundef nonnull @.str.65, i32 noundef 54, ptr noundef nonnull @__PRETTY_FUNCTION__.test_atomic_add_int) #7
  unreachable

11:                                               ; preds = %7
  %12 = atomicrmw add ptr %3, i32 2 seq_cst, align 4
  %13 = icmp eq i32 %12, 1
  br i1 %13, label %15, label %14

14:                                               ; preds = %11
  call void @__assert_fail(ptr noundef nonnull @.str.114, ptr noundef nonnull @.str.65, i32 noundef 54, ptr noundef nonnull @__PRETTY_FUNCTION__.test_atomic_add_int) #7
  unreachable

15:                                               ; preds = %11
  %16 = load i32, ptr %3, align 4, !tbaa !8
  %17 = icmp eq i32 %16, 3
  br i1 %17, label %19, label %18

18:                                               ; preds = %15
  call void @__assert_fail(ptr noundef nonnull @.str.68, ptr noundef nonnull @.str.65, i32 noundef 54, ptr noundef nonnull @__PRETTY_FUNCTION__.test_atomic_add_int) #7
  unreachable

19:                                               ; preds = %15
  %20 = atomicrmw add ptr %3, i32 -2 seq_cst, align 4
  %21 = icmp eq i32 %20, 3
  br i1 %21, label %23, label %22

22:                                               ; preds = %19
  call void @__assert_fail(ptr noundef nonnull @.str.115, ptr noundef nonnull @.str.65, i32 noundef 54, ptr noundef nonnull @__PRETTY_FUNCTION__.test_atomic_add_int) #7
  unreachable

23:                                               ; preds = %19
  %24 = load i32, ptr %3, align 4, !tbaa !8
  %25 = icmp eq i32 %24, 1
  br i1 %25, label %27, label %26

26:                                               ; preds = %23
  call void @__assert_fail(ptr noundef nonnull @.str.66, ptr noundef nonnull @.str.65, i32 noundef 54, ptr noundef nonnull @__PRETTY_FUNCTION__.test_atomic_add_int) #7
  unreachable

27:                                               ; preds = %23
  %28 = atomicrmw add ptr %3, i32 -1 seq_cst, align 4
  %29 = icmp eq i32 %28, 1
  br i1 %29, label %31, label %30

30:                                               ; preds = %27
  call void @__assert_fail(ptr noundef nonnull @.str.116, ptr noundef nonnull @.str.65, i32 noundef 54, ptr noundef nonnull @__PRETTY_FUNCTION__.test_atomic_add_int) #7
  unreachable

31:                                               ; preds = %27
  %32 = load i32, ptr %3, align 4, !tbaa !8
  %33 = icmp eq i32 %32, 0
  br i1 %33, label %35, label %34

34:                                               ; preds = %31
  call void @__assert_fail(ptr noundef nonnull @.str.71, ptr noundef nonnull @.str.65, i32 noundef 54, ptr noundef nonnull @__PRETTY_FUNCTION__.test_atomic_add_int) #7
  unreachable

35:                                               ; preds = %31
  %36 = atomicrmw add ptr %3, i32 -1 seq_cst, align 4
  %37 = icmp eq i32 %36, 0
  br i1 %37, label %39, label %38

38:                                               ; preds = %35
  call void @__assert_fail(ptr noundef nonnull @.str.117, ptr noundef nonnull @.str.65, i32 noundef 54, ptr noundef nonnull @__PRETTY_FUNCTION__.test_atomic_add_int) #7
  unreachable

39:                                               ; preds = %35
  %40 = load i32, ptr %3, align 4, !tbaa !8
  %41 = icmp eq i32 %40, -1
  br i1 %41, label %43, label %42

42:                                               ; preds = %39
  call void @__assert_fail(ptr noundef nonnull @.str.118, ptr noundef nonnull @.str.65, i32 noundef 54, ptr noundef nonnull @__PRETTY_FUNCTION__.test_atomic_add_int) #7
  unreachable

43:                                               ; preds = %39
  %44 = atomicrmw add ptr %3, i32 -2 seq_cst, align 4
  %45 = icmp eq i32 %44, -1
  br i1 %45, label %47, label %46

46:                                               ; preds = %43
  call void @__assert_fail(ptr noundef nonnull @.str.119, ptr noundef nonnull @.str.65, i32 noundef 54, ptr noundef nonnull @__PRETTY_FUNCTION__.test_atomic_add_int) #7
  unreachable

47:                                               ; preds = %43
  %48 = load i32, ptr %3, align 4, !tbaa !8
  %49 = icmp eq i32 %48, -3
  br i1 %49, label %51, label %50

50:                                               ; preds = %47
  call void @__assert_fail(ptr noundef nonnull @.str.120, ptr noundef nonnull @.str.65, i32 noundef 54, ptr noundef nonnull @__PRETTY_FUNCTION__.test_atomic_add_int) #7
  unreachable

51:                                               ; preds = %47
  %52 = atomicrmw add ptr %3, i32 2 seq_cst, align 4
  %53 = icmp eq i32 %52, -3
  br i1 %53, label %55, label %54

54:                                               ; preds = %51
  call void @__assert_fail(ptr noundef nonnull @.str.121, ptr noundef nonnull @.str.65, i32 noundef 54, ptr noundef nonnull @__PRETTY_FUNCTION__.test_atomic_add_int) #7
  unreachable

55:                                               ; preds = %51
  %56 = load i32, ptr %3, align 4, !tbaa !8
  %57 = icmp eq i32 %56, -1
  br i1 %57, label %59, label %58

58:                                               ; preds = %55
  call void @__assert_fail(ptr noundef nonnull @.str.118, ptr noundef nonnull @.str.65, i32 noundef 54, ptr noundef nonnull @__PRETTY_FUNCTION__.test_atomic_add_int) #7
  unreachable

59:                                               ; preds = %55
  call void @llvm.lifetime.end.p0(i64 4, ptr nonnull %3) #6
  ret ptr @_Py_NoneStruct
}